target datalayout = "e-m:e-p270:32:32-p271:32:32-p272:64:64-i64:64-i128:128-f80:128-n8:16:32:64-S128"
target triple = "x86_64-pc-linux-gnu"

%struct.Curl_cftype = type { ptr, i32, i32, ptr, ptr, ptr, ptr, ptr, ptr, ptr, ptr, ptr, ptr, ptr, ptr }
%struct.Curl_sockaddr_ex = type { i32, i32, i32, i32, %union.anon }
%union.anon = type { %struct.Curl_sockaddr_storage }
%struct.Curl_sockaddr_storage = type { %union.anon.0 }
%union.anon.0 = type { %struct.sockaddr_storage }
%struct.sockaddr_storage = type { i16, [118 x i8], i64 }
%struct.Curl_easy = type { i32, i64, ptr, ptr, ptr, %struct.Curl_llist_element, %struct.Curl_llist_element, i32, i32, %struct.Curl_message, %struct.easy_pollset, %struct.Names, ptr, ptr, ptr, %struct.SingleRequest, %struct.UserDefined, ptr, ptr, %struct.Progress, %struct.UrlState, ptr, %struct.PureInfo, %struct.curl_tlssessioninfo }
%struct.Curl_llist_element = type { ptr, ptr, ptr }
%struct.Curl_message = type { %struct.Curl_llist_element, %struct.CURLMsg }
%struct.CURLMsg = type { i32, ptr, %union.anon.3 }
%union.anon.3 = type { ptr }
%struct.easy_pollset = type { [5 x i32], i32, [5 x i8] }
%struct.Names = type { ptr, i32 }
%struct.SingleRequest = type <{ i64, i64, i64, i64, i64, %struct.curltime, i32, i32, i32, i32, i64, i32, i32, %struct.curltime, i32, i32, ptr, i64, i64, ptr, ptr, i64, ptr, %union.anon.4, ptr, [2 x i8], i8, i16, [3 x i8] }>
%struct.curltime = type { i64, i32 }
%union.anon.4 = type { ptr }
%struct.UserDefined = type <{ ptr, ptr, ptr, ptr, ptr, ptr, i16, [6 x i8], i64, i64, i64, ptr, ptr, i64, i16, i16, [4 x i8], ptr, ptr, ptr, ptr, ptr, ptr, ptr, ptr, ptr, ptr, ptr, ptr, ptr, ptr, ptr, ptr, ptr, ptr, ptr, ptr, ptr, ptr, ptr, i32, i32, i32, i32, i64, i64, i64, i64, i64, i64, i64, i64, ptr, ptr, %struct.curl_mimepart, ptr, ptr, i64, i8, i8, i8, [5 x i8], %struct.ssl_config_data, %struct.ssl_config_data, ptr, i16, i8, i8, [4 x i8], %struct.ssl_general_config, i32, i32, i32, [4 x i8], ptr, ptr, i8, [7 x i8], i64, i8, i8, i8, i8, i32, ptr, ptr, ptr, i8, i8, [2 x i8], i32, [80 x ptr], [8 x ptr], i32, i32, i32, [4 x i8], ptr, ptr, ptr, ptr, ptr, i8, [3 x i8], i32, i32, [4 x i8], i64, %struct.Curl_data_priority, ptr, ptr, i64, ptr, ptr, ptr, ptr, ptr, i8, [3 x i8], i32, i8, i8, i56, [6 x i8] }>
%struct.curl_mimepart = type { ptr, ptr, i32, i32, ptr, ptr, ptr, ptr, ptr, ptr, ptr, ptr, ptr, ptr, ptr, i64, %struct.mime_state, ptr, %struct.mime_encoder_state, i64 }
%struct.mime_state = type { i32, ptr, i64 }
%struct.mime_encoder_state = type { i64, i64, i64, [256 x i8] }
%struct.ssl_config_data = type { %struct.ssl_primary_config, i64, ptr, ptr, ptr, ptr, ptr, ptr, ptr, i8 }
%struct.ssl_primary_config = type { ptr, ptr, ptr, ptr, ptr, ptr, ptr, ptr, ptr, ptr, ptr, ptr, i8, i32, i8, i8 }
%struct.ssl_general_config = type { i64, i32 }
%struct.Curl_data_priority = type { ptr, ptr, i32, i8 }
%struct.Progress = type { i64, i64, i64, i64, i64, i64, i32, i32, i64, i64, i64, i64, i64, i64, i64, i64, i64, i64, %struct.curltime, %struct.curltime, %struct.curltime, %struct.curltime, %struct.curltime, i64, %struct.curltime, i64, [6 x i64], [6 x %struct.curltime], i32, i8 }
%struct.UrlState = type { ptr, %struct.curltime, i64, i64, %struct.dynbuf, ptr, ptr, ptr, i64, ptr, i32, i32, i32, ptr, i64, [3 x %struct.tempbuf], i32, i32, ptr, i64, i32, ptr, %struct.digestdata, %struct.digestdata, %struct.auth, %struct.auth, %struct.Curl_async, ptr, %struct.curltime, %struct.Curl_tree, %struct.Curl_llist, [15 x %struct.time_node], ptr, i8, i64, ptr, i64, i64, %struct.Curl_data_priority, ptr, ptr, ptr, %struct.urlpieces, ptr, ptr, ptr, ptr, ptr, i64, %struct.dynbuf, %struct.Curl_llist, [2 x %struct.curl_header], ptr, i32, ptr, %struct.dynamically_allocated_data, i8, i8, i8, i8, i24 }
%struct.tempbuf = type { %struct.dynbuf, i32, i8 }
%struct.digestdata = type { ptr, ptr, ptr, ptr, ptr, ptr, i32, i8, i8 }
%struct.auth = type { i64, i64, i64, i8 }
%struct.Curl_async = type { ptr, ptr, ptr, ptr, i32, i32, i8 }
%struct.Curl_tree = type { ptr, ptr, ptr, ptr, %struct.curltime, ptr }
%struct.time_node = type { %struct.Curl_llist_element, %struct.curltime, i32 }
%struct.urlpieces = type { ptr, ptr, ptr, ptr, ptr, ptr, ptr, ptr }
%struct.dynbuf = type { ptr, i64, i64, i64 }
%struct.Curl_llist = type { ptr, ptr, ptr, i64 }
%struct.curl_header = type { ptr, ptr, i64, i64, i32, ptr }
%struct.dynamically_allocated_data = type { ptr, ptr, ptr, ptr, ptr, ptr, ptr, ptr, ptr, ptr, ptr, ptr, ptr, ptr }
%struct.PureInfo = type { i32, i32, i32, i64, i64, i64, i64, i64, ptr, ptr, i64, i32, [46 x i8], i32, i32, [46 x i8], i32, ptr, i32, %struct.curl_certinfo, i32, i8 }
%struct.curl_certinfo = type { i32, ptr }
%struct.curl_tlssessioninfo = type { i32, ptr }
%struct.connectdata = type { %struct.Curl_llist_element, ptr, ptr, i64, ptr, ptr, %struct.hostname, ptr, ptr, %struct.hostname, %struct.proxy_info, %struct.proxy_info, [46 x i8], ptr, ptr, ptr, ptr, ptr, %struct.curltime, %struct.curltime, %struct.curltime, [2 x i32], [2 x ptr], [2 x ptr], [2 x ptr], %struct.ssl_primary_config, %struct.ssl_primary_config, %struct.ConnectBits, ptr, ptr, %struct.curltime, i32, i32, %struct.Curl_llist, ptr, ptr, i32, i32, %struct.ntlmdata, %struct.ntlmdata, %union.anon.2, ptr, ptr, i16, i32, i32, i32, i32, i32, i16, i16, i8, i8, i8, i8, i8, i8, i8 }
%struct.hostname = type { ptr, ptr, ptr, ptr }
%struct.proxy_info = type { %struct.hostname, i32, i8, ptr, ptr }
%struct.ConnectBits = type { i32 }
%struct.ntlmdata = type { i32, [8 x i8], i32, ptr }
%union.anon.2 = type { %struct.ftp_conn }
%struct.ftp_conn = type { %struct.pingpong, ptr, ptr, ptr, ptr, ptr, ptr, ptr, i8, i64, ptr, i64, i32, i32, i32, i32, i32, i16, i8, i8, i8, i8, i8 }
%struct.pingpong = type { i64, i8, ptr, i64, i64, %struct.curltime, i64, %struct.dynbuf, %struct.dynbuf, i64, i64, ptr, ptr }
%struct.Curl_cfilter = type { ptr, ptr, ptr, ptr, i32, i8 }
%struct.cf_socket_ctx = type { i32, %struct.Curl_sockaddr_ex, i32, %struct.bufq, [46 x i8], i32, [46 x i8], i32, %struct.curltime, %struct.curltime, %struct.curltime, i32, i8 }
%struct.bufq = type { ptr, ptr, ptr, ptr, i64, i64, i64, i32 }

@Curl_ccalloc = external global ptr, align 8
@Curl_cfree = external global ptr, align 8
@.str.4 = private unnamed_addr constant [29 x i8] c"Curl_conn_tcp_listen_set(%d)\00", align 1

; Function Attrs: nounwind uwtable
define dso_local i32 @Curl_conn_tcp_listen_set(ptr noundef %0, ptr noundef %1, i32 noundef %2, ptr noundef %3) #0 {
  %5 = alloca ptr, align 8
  %6 = alloca ptr, align 8
  %7 = alloca i32, align 4
  %8 = alloca ptr, align 8
  %9 = alloca i32, align 4
  %10 = alloca ptr, align 8
  %11 = alloca ptr, align 8
  %12 = alloca %struct.curltime, align 8
  store ptr %0, ptr %5, align 8
  store ptr %1, ptr %6, align 8
  store i32 %2, ptr %7, align 4
  store ptr %3, ptr %8, align 8
  store ptr null, ptr %10, align 8
  store ptr null, ptr %11, align 8
  %13 = load ptr, ptr %5, align 8
  %14 = load ptr, ptr %6, align 8
  %15 = load i32, ptr %7, align 4
  call void @Curl_conn_cf_discard_all(ptr noundef %13, ptr noundef %14, i32 noundef %15)
  br label %16

16:                                               ; preds = %4
  br label %17

17:                                               ; preds = %16
  %18 = load ptr, ptr @Curl_ccalloc, align 8
  %19 = call ptr %18(i64 noundef 1, i64 noundef 384)
  store ptr %19, ptr %11, align 8
  %20 = load ptr, ptr %11, align 8
  %21 = icmp ne ptr %20, null
  br i1 %21, label %23, label %22

22:                                               ; preds = %17
  store i32 27, ptr %9, align 4
  br label %107

23:                                               ; preds = %17
  %24 = load ptr, ptr %6, align 8
  %25 = getelementptr inbounds %struct.connectdata, ptr %24, i32 0, i32 53
  %26 = load i8, ptr %25, align 2
  %27 = zext i8 %26 to i32
  %28 = load ptr, ptr %11, align 8
  %29 = getelementptr inbounds %struct.cf_socket_ctx, ptr %28, i32 0, i32 0
  store i32 %27, ptr %29, align 8
  %30 = load ptr, ptr %8, align 8
  %31 = load i32, ptr %30, align 4
  %32 = load ptr, ptr %11, align 8
  %33 = getelementptr inbounds %struct.cf_socket_ctx, ptr %32, i32 0, i32 2
  store i32 %31, ptr %33, align 8
  %34 = load ptr, ptr %11, align 8
  %35 = getelementptr inbounds %struct.cf_socket_ctx, ptr %34, i32 0, i32 12
  %36 = load i8, ptr %35, align 4
  %37 = and i8 %36, -3
  %38 = or i8 %37, 0
  store i8 %38, ptr %35, align 4
  %39 = load ptr, ptr %11, align 8
  %40 = call i32 @Curl_cf_create(ptr noundef %10, ptr noundef @Curl_cft_tcp_accept, ptr noundef %39)
  store i32 %40, ptr %9, align 4
  %41 = load i32, ptr %9, align 4
  %42 = icmp ne i32 %41, 0
  br i1 %42, label %43, label %44

43:                                               ; preds = %23
  br label %107

44:                                               ; preds = %23
  %45 = load ptr, ptr %5, align 8
  %46 = load ptr, ptr %6, align 8
  %47 = load i32, ptr %7, align 4
  %48 = load ptr, ptr %10, align 8
  call void @Curl_conn_cf_add(ptr noundef %45, ptr noundef %46, i32 noundef %47, ptr noundef %48)
  %49 = load ptr, ptr %11, align 8
  %50 = getelementptr inbounds %struct.cf_socket_ctx, ptr %49, i32 0, i32 2
  %51 = load i32, ptr %50, align 8
  %52 = load ptr, ptr %6, align 8
  %53 = getelementptr inbounds %struct.connectdata, ptr %52, i32 0, i32 21
  %54 = load i32, ptr %7, align 4
  %55 = sext i32 %54 to i64
  %56 = getelementptr inbounds [2 x i32], ptr %53, i64 0, i64 %55
  store i32 %51, ptr %56, align 4
  %57 = load ptr, ptr %10, align 8
  %58 = load ptr, ptr %5, align 8
  %59 = call i32 @set_local_ip(ptr noundef %57, ptr noundef %58)
  %60 = load ptr, ptr %11, align 8
  %61 = getelementptr inbounds %struct.cf_socket_ctx, ptr %60, i32 0, i32 12
  %62 = load i8, ptr %61, align 4
  %63 = and i8 %62, -9
  %64 = or i8 %63, 8
  store i8 %64, ptr %61, align 4
  %65 = load ptr, ptr %11, align 8
  %66 = getelementptr inbounds %struct.cf_socket_ctx, ptr %65, i32 0, i32 9
  %67 = call { i64, i32 } @Curl_now()
  %68 = getelementptr inbounds { i64, i32 }, ptr %12, i32 0, i32 0
  %69 = extractvalue { i64, i32 } %67, 0
  store i64 %69, ptr %68, align 8
  %70 = getelementptr inbounds { i64, i32 }, ptr %12, i32 0, i32 1
  %71 = extractvalue { i64, i32 } %67, 1
  store i32 %71, ptr %70, align 8
  call void @llvm.memcpy.p0.p0.i64(ptr align 8 %66, ptr align 8 %12, i64 16, i1 false)
  %72 = load ptr, ptr %10, align 8
  %73 = getelementptr inbounds %struct.Curl_cfilter, ptr %72, i32 0, i32 5
  %74 = load i8, ptr %73, align 4
  %75 = and i8 %74, -2
  %76 = or i8 %75, 1
  store i8 %76, ptr %73, align 4
  br label %77

77:                                               ; preds = %44
  %78 = load ptr, ptr %5, align 8
  %79 = icmp ne ptr %78, null
  br i1 %79, label %80, label %105

80:                                               ; preds = %77
  %81 = load ptr, ptr %5, align 8
  %82 = getelementptr inbounds %struct.Curl_easy, ptr %81, i32 0, i32 16
  %83 = getelementptr inbounds %struct.UserDefined, ptr %82, i32 0, i32 122
  %84 = load i64, ptr %83, align 2
  %85 = lshr i64 %84, 28
  %86 = and i64 %85, 1
  %87 = trunc i64 %86 to i32
  %88 = icmp ne i32 %87, 0
  br i1 %88, label %89, label %105

89:                                               ; preds = %80
  %90 = load ptr, ptr %10, align 8
  %91 = icmp ne ptr %90, null
  br i1 %91, label %92, label %105

92:                                               ; preds = %89
  %93 = load ptr, ptr %10, align 8
  %94 = getelementptr inbounds %struct.Curl_cfilter, ptr %93, i32 0, i32 0
  %95 = load ptr, ptr %94, align 8
  %96 = getelementptr inbounds %struct.Curl_cftype, ptr %95, i32 0, i32 2
  %97 = load i32, ptr %96, align 4
  %98 = icmp sge i32 %97, 1
  br i1 %98, label %99, label %105

99:                                               ; preds = %92
  %100 = load ptr, ptr %5, align 8
  %101 = load ptr, ptr %10, align 8
  %102 = load ptr, ptr %11, align 8
  %103 = getelementptr inbounds %struct.cf_socket_ctx, ptr %102, i32 0, i32 2
  %104 = load i32, ptr %103, align 8
  call void (ptr, ptr, ptr, ...) @Curl_trc_cf_infof(ptr noundef %100, ptr noundef %101, ptr noundef @.str.4, i32 noundef %104)
  br label %105

105:                                              ; preds = %99, %92, %89, %80, %77
  br label %106

106:                                              ; preds = %105
  br label %107

107:                                              ; preds = %106, %43, %22
  %108 = load i32, ptr %9, align 4
  %109 = icmp ne i32 %108, 0
  br i1 %109, label %110, label %119

110:                                              ; preds = %107
  br label %111

111:                                              ; preds = %110
  %112 = load ptr, ptr @Curl_cfree, align 8
  %113 = load ptr, ptr %10, align 8
  call void %112(ptr noundef %113)
  store ptr null, ptr %10, align 8
  br label %114

114:                                              ; preds = %111
  br label %115

115:                                              ; preds = %114
  %116 = load ptr, ptr @Curl_cfree, align 8
  %117 = load ptr, ptr %11, align 8
  call void %116(ptr noundef %117)
  store ptr null, ptr %11, align 8
  br label %118

118:                                              ; preds = %115
  br label %119

119:                                              ; preds = %118, %107
  %120 = load i32, ptr %9, align 4
  ret i32 %120
}