; Function Attrs: nounwind uwtable
define dso_local i32 @Curl_conn_tcp_listen_set(ptr noundef %0, ptr noundef %1, i32 noundef %2, ptr noundef readonly captures(none) %3) local_unnamed_addr #2 {
  %5 = alloca ptr, align 8
  store ptr null, ptr %5, align 8
  tail call void @Curl_conn_cf_discard_all(ptr noundef %0, ptr noundef %1, i32 noundef %2) #13
  %6 = load ptr, ptr @Curl_ccalloc, align 8
  %7 = tail call ptr %6(i64 noundef 1, i64 noundef 384) #13
  %.not = icmp eq ptr %7, null
  br i1 %.not, label %46, label %8

8:                                                ; preds = %4
  %9 = getelementptr inbounds nuw i8, ptr %1, i64 1150
  %10 = load i8, ptr %9, align 2
  %11 = zext i8 %10 to i32
  store i32 %11, ptr %7, align 8
  %12 = load i32, ptr %3, align 4
  %13 = getelementptr inbounds nuw i8, ptr %7, i64 152
  store i32 %12, ptr %13, align 8
  %14 = getelementptr inbounds nuw i8, ptr %7, i64 380
  %15 = load i8, ptr %14, align 4
  %16 = and i8 %15, -3
  store i8 %16, ptr %14, align 4
  %17 = call i32 @Curl_cf_create(ptr noundef nonnull %5, ptr noundef nonnull @Curl_cft_tcp_accept, ptr noundef nonnull %7) #13
  %.not31 = icmp eq i32 %17, 0
  %.pre = load ptr, ptr %5, align 8
  br i1 %.not31, label %18, label %46

18:                                               ; preds = %8
  call void @Curl_conn_cf_add(ptr noundef %0, ptr noundef nonnull %1, i32 noundef %2, ptr noundef %.pre) #13
  %19 = load i32, ptr %13, align 8
  %20 = getelementptr inbounds nuw i8, ptr %1, i64 392
  %21 = sext i32 %2 to i64
  %22 = getelementptr inbounds [2 x i32], ptr %20, i64 0, i64 %21
  store i32 %19, ptr %22, align 4
  %23 = load ptr, ptr %5, align 8
  %24 = getelementptr i8, ptr %23, i64 16
  %.val = load ptr, ptr %24, align 8
  call fastcc void @set_local_ip(ptr %.val, ptr noundef %0)
  %25 = load i8, ptr %14, align 4
  %26 = or i8 %25, 8
  store i8 %26, ptr %14, align 4
  %27 = getelementptr inbounds nuw i8, ptr %7, i64 344
  %28 = call { i64, i32 } @Curl_now() #13
  %29 = extractvalue { i64, i32 } %28, 0
  %30 = extractvalue { i64, i32 } %28, 1
  store i64 %29, ptr %27, align 8
  %.sroa.2.0..sroa_idx = getelementptr inbounds nuw i8, ptr %7, i64 352
  store i32 %30, ptr %.sroa.2.0..sroa_idx, align 8
  %31 = load ptr, ptr %5, align 8
  %32 = getelementptr inbounds nuw i8, ptr %31, i64 36
  %33 = load i8, ptr %32, align 4
  %34 = or i8 %33, 1
  store i8 %34, ptr %32, align 4
  %.not32 = icmp eq ptr %0, null
  br i1 %.not32, label %.thread, label %35

35:                                               ; preds = %18
  %36 = getelementptr inbounds nuw i8, ptr %0, i64 2642
  %37 = load i64, ptr %36, align 2
  %38 = and i64 %37, 268435456
  %.not37 = icmp eq i64 %38, 0
  br i1 %.not37, label %.thread, label %39

39:                                               ; preds = %35
  %40 = load ptr, ptr %31, align 8
  %41 = getelementptr inbounds nuw i8, ptr %40, i64 12
  %42 = load i32, ptr %41, align 4
  %43 = icmp sgt i32 %42, 0
  br i1 %43, label %44, label %.thread

44:                                               ; preds = %39
  %45 = load i32, ptr %13, align 8
  call void (ptr, ptr, ptr, ...) @Curl_trc_cf_infof(ptr noundef nonnull %0, ptr noundef nonnull %31, ptr noundef nonnull @.str.4, i32 noundef %45) #13
  br label %.thread

46:                                               ; preds = %8, %4
  %47 = phi ptr [ %.pre, %8 ], [ null, %4 ]
  %.0 = phi i32 [ %17, %8 ], [ 27, %4 ]
  %48 = load ptr, ptr @Curl_cfree, align 8
  call void %48(ptr noundef %47) #13
  store ptr null, ptr %5, align 8
  %49 = load ptr, ptr @Curl_cfree, align 8
  call void %49(ptr noundef %7) #13
  br label %.thread

.thread:                                          ; preds = %18, %35, %39, %44, %46
  %.036 = phi i32 [ %.0, %46 ], [ 0, %44 ], [ 0, %39 ], [ 0, %35 ], [ 0, %18 ]
  ret i32 %.036
}